target datalayout = "e-m:e-p270:32:32-p271:32:32-p272:64:64-i64:64-i128:128-f80:128-n8:16:32:64-S128"
target triple = "x86_64-unknown-linux-gnu"

%"class.std::__shared_count" = type { ptr }
%"class.facebook::velox::exec::EvalCtx" = type { ptr, ptr, ptr, i8, i8, %"class.std::vector", %"class.std::shared_ptr", i8, i8, i8, ptr, %"class.std::shared_ptr.0" }
%"class.std::vector" = type { %"struct.std::_Vector_base" }
%"struct.std::_Vector_base" = type { %"struct.std::_Vector_base<std::shared_ptr<facebook::velox::BaseVector>, std::allocator<std::shared_ptr<facebook::velox::BaseVector>>>::_Vector_impl" }
%"struct.std::_Vector_base<std::shared_ptr<facebook::velox::BaseVector>, std::allocator<std::shared_ptr<facebook::velox::BaseVector>>>::_Vector_impl" = type { %"struct.std::_Vector_base<std::shared_ptr<facebook::velox::BaseVector>, std::allocator<std::shared_ptr<facebook::velox::BaseVector>>>::_Vector_impl_data" }
%"struct.std::_Vector_base<std::shared_ptr<facebook::velox::BaseVector>, std::allocator<std::shared_ptr<facebook::velox::BaseVector>>>::_Vector_impl_data" = type { ptr, ptr, ptr }
%"class.std::shared_ptr" = type { %"class.std::__shared_ptr" }
%"class.std::__shared_ptr" = type { ptr, %"class.std::__shared_count" }
%"class.std::shared_ptr.0" = type { %"class.std::__shared_ptr.1" }
%"class.std::__shared_ptr.1" = type { ptr, %"class.std::__shared_count" }
%"class.facebook::velox::exec::ScopedFinalSelectionSetter" = type <{ ptr, ptr, i8, [7 x i8] }>

; Function Attrs: mustprogress nounwind uwtable
define linkonce_odr noundef zeroext i1 @_ZNK8facebook5velox4exec7EvalCtx16isFinalSelectionEv(ptr noundef nonnull align 8 dereferenceable(104) %this) #1 comdat align 2 {
entry:
  %this.addr = alloca ptr, align 8
  store ptr %this, ptr %this.addr, align 8
  %this1 = load ptr, ptr %this.addr, align 8
  %isFinalSelection_ = getelementptr inbounds %"class.facebook::velox::exec::EvalCtx", ptr %this1, i32 0, i32 9
  %0 = load i8, ptr %isFinalSelection_, align 2
  %tobool = trunc i8 %0 to i1
  ret i1 %tobool
}

; Function Attrs: mustprogress nounwind uwtable
define linkonce_odr noundef ptr @_ZN8facebook5velox4exec7EvalCtx23mutableIsFinalSelectionEv(ptr noundef nonnull align 8 dereferenceable(104) %this) #1 comdat align 2 {
entry:
  %this.addr = alloca ptr, align 8
  store ptr %this, ptr %this.addr, align 8
  %this1 = load ptr, ptr %this.addr, align 8
  %isFinalSelection_ = getelementptr inbounds %"class.facebook::velox::exec::EvalCtx", ptr %this1, i32 0, i32 9
  ret ptr %isFinalSelection_
}

; Function Attrs: mustprogress nounwind uwtable
define linkonce_odr noundef ptr @_ZN8facebook5velox4exec7EvalCtx21mutableFinalSelectionEv(ptr noundef nonnull align 8 dereferenceable(104) %this) #1 comdat align 2 {
entry:
  %this.addr = alloca ptr, align 8
  store ptr %this, ptr %this.addr, align 8
  %this1 = load ptr, ptr %this.addr, align 8
  %finalSelection_ = getelementptr inbounds %"class.facebook::velox::exec::EvalCtx", ptr %this1, i32 0, i32 10
  ret ptr %finalSelection_
}

; Function Attrs: mustprogress uwtable
define void @_ZN8facebook5velox4exec26ScopedFinalSelectionSetterC2ERNS1_7EvalCtxEPKNS0_17SelectivityVectorEbb(ptr noundef nonnull align 8 dereferenceable(17) %this, ptr noundef nonnull align 8 dereferenceable(104) %evalCtx, ptr noundef %finalSelection, i1 noundef zeroext %checkCondition, i1 noundef zeroext %override) unnamed_addr #0 align 2 {
entry:
  %this.addr = alloca ptr, align 8
  %evalCtx.addr = alloca ptr, align 8
  %finalSelection.addr = alloca ptr, align 8
  %checkCondition.addr = alloca i8, align 1
  %override.addr = alloca i8, align 1
  store ptr %this, ptr %this.addr, align 8
  store ptr %evalCtx, ptr %evalCtx.addr, align 8
  store ptr %finalSelection, ptr %finalSelection.addr, align 8
  %frombool = zext i1 %checkCondition to i8
  store i8 %frombool, ptr %checkCondition.addr, align 1
  %frombool1 = zext i1 %override to i8
  store i8 %frombool1, ptr %override.addr, align 1
  %this2 = load ptr, ptr %this.addr, align 8
  %evalCtx_ = getelementptr inbounds %"class.facebook::velox::exec::ScopedFinalSelectionSetter", ptr %this2, i32 0, i32 0
  %0 = load ptr, ptr %evalCtx.addr, align 8
  store ptr %0, ptr %evalCtx_, align 8
  %oldFinalSelection_ = getelementptr inbounds %"class.facebook::velox::exec::ScopedFinalSelectionSetter", ptr %this2, i32 0, i32 1
  %1 = load ptr, ptr %evalCtx.addr, align 8
  %call = call noundef ptr @_ZN8facebook5velox4exec7EvalCtx21mutableFinalSelectionEv(ptr noundef nonnull align 8 dereferenceable(104) %1)
  %2 = load ptr, ptr %call, align 8
  store ptr %2, ptr %oldFinalSelection_, align 8
  %oldIsFinalSelection_ = getelementptr inbounds %"class.facebook::velox::exec::ScopedFinalSelectionSetter", ptr %this2, i32 0, i32 2
  %3 = load ptr, ptr %evalCtx.addr, align 8
  %call3 = call noundef ptr @_ZN8facebook5velox4exec7EvalCtx23mutableIsFinalSelectionEv(ptr noundef nonnull align 8 dereferenceable(104) %3)
  %4 = load i8, ptr %call3, align 1
  %tobool = trunc i8 %4 to i1
  %frombool4 = zext i1 %tobool to i8
  store i8 %frombool4, ptr %oldIsFinalSelection_, align 8
  %5 = load ptr, ptr %evalCtx.addr, align 8
  %call5 = call noundef zeroext i1 @_ZNK8facebook5velox4exec7EvalCtx16isFinalSelectionEv(ptr noundef nonnull align 8 dereferenceable(104) %5)
  br i1 %call5, label %land.lhs.true, label %lor.lhs.false

land.lhs.true:                                    ; preds = %entry
  %6 = load i8, ptr %checkCondition.addr, align 1
  %tobool6 = trunc i8 %6 to i1
  br i1 %tobool6, label %if.then, label %lor.lhs.false

lor.lhs.false:                                    ; preds = %land.lhs.true, %entry
  %7 = load i8, ptr %override.addr, align 1
  %tobool7 = trunc i8 %7 to i1
  br i1 %tobool7, label %if.then, label %if.end

if.then:                                          ; preds = %lor.lhs.false, %land.lhs.true
  %8 = load ptr, ptr %finalSelection.addr, align 8
  %9 = load ptr, ptr %evalCtx.addr, align 8
  %call8 = call noundef ptr @_ZN8facebook5velox4exec7EvalCtx21mutableFinalSelectionEv(ptr noundef nonnull align 8 dereferenceable(104) %9)
  store ptr %8, ptr %call8, align 8
  %10 = load ptr, ptr %evalCtx.addr, align 8
  %call9 = call noundef ptr @_ZN8facebook5velox4exec7EvalCtx23mutableIsFinalSelectionEv(ptr noundef nonnull align 8 dereferenceable(104) %10)
  store i8 0, ptr %call9, align 1
  br label %if.end

if.end:                                           ; preds = %if.then, %lor.lhs.false
  ret void
}