; Function Attrs: mustprogress nofree norecurse nosync nounwind willreturn memory(argmem: readwrite) uwtable
define void @_ZN8facebook5velox4exec26ScopedFinalSelectionSetterC2ERNS1_7EvalCtxEPKNS0_17SelectivityVectorEbb(ptr nocapture noundef nonnull writeonly align 8 dereferenceable(17) %this, ptr noundef nonnull align 8 dereferenceable(104) %evalCtx, ptr noundef %finalSelection, i1 noundef zeroext %checkCondition, i1 noundef zeroext %override) unnamed_addr #3 align 2 {
entry:
  store ptr %evalCtx, ptr %this, align 8
  %oldFinalSelection_ = getelementptr inbounds i8, ptr %this, i64 8
  %finalSelection_.i = getelementptr inbounds i8, ptr %evalCtx, i64 80
  %0 = load ptr, ptr %finalSelection_.i, align 8
  store ptr %0, ptr %oldFinalSelection_, align 8
  %oldIsFinalSelection_ = getelementptr inbounds i8, ptr %this, i64 16
  %isFinalSelection_.i = getelementptr inbounds i8, ptr %evalCtx, i64 74
  %1 = load i8, ptr %isFinalSelection_.i, align 2
  %2 = and i8 %1, 1
  store i8 %2, ptr %oldIsFinalSelection_, align 8
  %3 = load i8, ptr %isFinalSelection_.i, align 2
  %4 = and i8 %3, 1
  %tobool.i.not = icmp ne i8 %4, 0
  %brmerge.not10 = and i1 %tobool.i.not, %checkCondition
  %brmerge6 = or i1 %brmerge.not10, %override
  br i1 %brmerge6, label %if.then, label %if.end

if.then:                                          ; preds = %entry
  store ptr %finalSelection, ptr %finalSelection_.i, align 8
  store i8 0, ptr %isFinalSelection_.i, align 2
  br label %if.end

if.end:                                           ; preds = %entry, %if.then
  ret void
}